; Function Attrs: mustprogress uwtable
define noundef range(i32 0, 2) i32 @_ZNK6casadi6Newton8init_memEPv(ptr noundef nonnull align 8 dereferenceable(1641) %0, ptr noundef %1) unnamed_addr #4 align 2 {
  %3 = tail call noundef i32 @_ZNK6casadi10Rootfinder8init_memEPv(ptr noundef nonnull align 8 dereferenceable(1600) %0, ptr noundef %1)
  %.not = icmp eq i32 %3, 0
  br i1 %.not, label %4, label %7

4:                                                ; preds = %2
  %5 = getelementptr inbounds nuw i8, ptr %1, i64 216
  store ptr @.str.45, ptr %5, align 8, !tbaa !170
  %6 = getelementptr inbounds nuw i8, ptr %1, i64 224
  store i64 0, ptr %6, align 8, !tbaa !166
  br label %7

7:                                                ; preds = %2, %4
  %.0 = phi i32 [ 0, %4 ], [ 1, %2 ]
  ret i32 %.0
}